; Function Attrs: mustprogress nounwind uwtable
define internal void @_ZNSt15_Sp_counted_ptrIPN32pxrInternal_v0_24__pxrReserved__12_GLOBAL__N_142_DirectMaterialBindingsContainerDataSourceELN9__gnu_cxx12_Lock_policyE2EE10_M_disposeEv(ptr nocapture noundef nonnull readonly align 8 dereferenceable(24) %0) unnamed_addr #2 align 2 {
  %2 = getelementptr inbounds nuw i8, ptr %0, i64 16
  %3 = load ptr, ptr %2, align 8
  %4 = icmp eq ptr %3, null
  br i1 %4, label %9, label %5

5:                                                ; preds = %1
  %6 = load ptr, ptr %3, align 8
  %7 = getelementptr inbounds i8, ptr %6, i64 8
  %8 = load ptr, ptr %7, align 8
  tail call void %8(ptr noundef nonnull align 8 dereferenceable(40) %3) #18
  br label %9

9:                                                ; preds = %5, %1
  ret void
}